; Function Attrs: mustprogress nounwind willreturn memory(argmem: readwrite, inaccessiblemem: readwrite) uwtable
define void @Abc_CexFree(ptr noundef %0) local_unnamed_addr #8 {
  %switch = icmp ult ptr %0, inttoptr (i64 2 to ptr)
  br i1 %switch, label %3, label %2

2:                                                ; preds = %1
  tail call void @free(ptr noundef %0) #16
  br label %3

3:                                                ; preds = %1, %2
  ret void
}